target datalayout = "e-m:e-p270:32:32-p271:32:32-p272:64:64-i64:64-i128:128-f80:128-n8:16:32:64-S128"
target triple = "x86_64-pc-linux-gnu"

%struct.ssl_st = type { i32, i16, i16, ptr, ptr, ptr, ptr, ptr, i32, i32, ptr, ptr, i32, i32, ptr, ptr, ptr, ptr, ptr, ptr, ptr, ptr, i32, i32, [32 x i8], ptr, ptr, ptr, ptr, ptr, ptr, ptr, i64, %struct.crypto_ex_data_st, ptr, i32, i32, i32, i32, i16, ptr, i32, i64, ptr, ptr, ptr, ptr, ptr, ptr, i32, i32, ptr, ptr, i8, i8, i32 }
%struct.crypto_ex_data_st = type { ptr }
%struct.ssl3_state_st = type { [8 x i8], [8 x i8], [32 x i8], [32 x i8], i8, i8, %struct.ssl3_buffer_st, %struct.ssl3_buffer_st, %struct.ssl3_record_st, i8, i32, i32, i32, i32, ptr, ptr, %struct.env_md_ctx_st, %struct.env_md_ctx_st, i8, i32, [2 x i8], i32, i8, i8, ptr, ptr, ptr, %struct.anon, [64 x i8], i8, [64 x i8], i8, i32, i32, ptr, i64, ptr, i64, i8, [64 x i8] }
%struct.ssl3_buffer_st = type { ptr, i16, i16, i16 }
%struct.ssl3_record_st = type { i8, i16, ptr }
%struct.env_md_ctx_st = type { ptr, ptr, ptr, ptr }
%struct.anon = type { [64 x i8], i32, [64 x i8], i32, i64, i32, ptr, i32, i32, %union.anon, %union.anon.0, i8, i32, ptr, ptr, i64, ptr, i8, i8, i8, i8, i32, i8, ptr, i64, i8, ptr, i8, i8, i8, %struct.ssl_ecdh_ctx_st, ptr, i16 }
%union.anon = type { i32 }
%union.anon.0 = type { i16 }
%struct.ssl_ecdh_ctx_st = type { ptr, ptr }
%struct.ssl_ctx_st = type { ptr, %union.crypto_mutex_st, i16, i16, ptr, ptr, ptr, ptr, ptr, ptr, i64, ptr, ptr, i32, i32, i64, ptr, ptr, ptr, i32, ptr, ptr, ptr, ptr, ptr, ptr, %struct.crypto_ex_data_st, ptr, ptr, ptr, ptr, i32, i32, i32, ptr, ptr, ptr, i32, i32, [32 x i8], ptr, ptr, ptr, ptr, i16, ptr, ptr, [16 x i8], [16 x i8], [16 x i8], ptr, ptr, ptr, ptr, i8, ptr, ptr, ptr, ptr, ptr, ptr, ptr, i32, ptr, i64, ptr, ptr, ptr, i64, ptr, i64, ptr, ptr, i8, ptr, i32 }
%union.crypto_mutex_st = type { double, [48 x i8] }

; Function Attrs: nounwind uwtable
define hidden i32 @dtls1_dispatch_alert(ptr noundef %0) #0 {
  %2 = alloca i32, align 4
  %3 = alloca ptr, align 8
  %4 = alloca i32, align 4
  %5 = alloca i32, align 4
  %6 = alloca ptr, align 8
  %7 = alloca i32, align 4
  store ptr %0, ptr %3, align 8, !tbaa !6
  %8 = load ptr, ptr %3, align 8, !tbaa !6
  %9 = getelementptr inbounds nuw %struct.ssl_st, ptr %8, i32 0, i32 14
  %10 = load ptr, ptr %9, align 8, !tbaa !16
  %11 = getelementptr inbounds nuw %struct.ssl3_state_st, ptr %10, i32 0, i32 19
  store i32 0, ptr %11, align 4, !tbaa !80
  call void @llvm.lifetime.start.p0(i64 4, ptr %4) #4
  %12 = load ptr, ptr %3, align 8, !tbaa !6
  %13 = load ptr, ptr %3, align 8, !tbaa !6
  %14 = getelementptr inbounds nuw %struct.ssl_st, ptr %13, i32 0, i32 14
  %15 = load ptr, ptr %14, align 8, !tbaa !16
  %16 = getelementptr inbounds nuw %struct.ssl3_state_st, ptr %15, i32 0, i32 20
  %17 = getelementptr inbounds [2 x i8], ptr %16, i64 0, i64 0
  %18 = call i32 @do_dtls1_write(ptr noundef %12, i32 noundef 21, ptr noundef %17, i32 noundef 2, i32 noundef 1)
  store i32 %18, ptr %4, align 4, !tbaa !13
  %19 = load i32, ptr %4, align 4, !tbaa !13
  %20 = icmp sle i32 %19, 0
  br i1 %20, label %21, label %27

21:                                               ; preds = %1
  %22 = load ptr, ptr %3, align 8, !tbaa !6
  %23 = getelementptr inbounds nuw %struct.ssl_st, ptr %22, i32 0, i32 14
  %24 = load ptr, ptr %23, align 8, !tbaa !16
  %25 = getelementptr inbounds nuw %struct.ssl3_state_st, ptr %24, i32 0, i32 19
  store i32 1, ptr %25, align 4, !tbaa !80
  %26 = load i32, ptr %4, align 4, !tbaa !13
  store i32 %26, ptr %2, align 4
  store i32 1, ptr %5, align 4
  br label %109

27:                                               ; preds = %1
  %28 = load ptr, ptr %3, align 8, !tbaa !6
  %29 = getelementptr inbounds nuw %struct.ssl_st, ptr %28, i32 0, i32 14
  %30 = load ptr, ptr %29, align 8, !tbaa !16
  %31 = getelementptr inbounds nuw %struct.ssl3_state_st, ptr %30, i32 0, i32 20
  %32 = getelementptr inbounds [2 x i8], ptr %31, i64 0, i64 0
  %33 = load i8, ptr %32, align 8, !tbaa !63
  %34 = zext i8 %33 to i32
  %35 = icmp eq i32 %34, 2
  br i1 %35, label %36, label %41

36:                                               ; preds = %27
  %37 = load ptr, ptr %3, align 8, !tbaa !6
  %38 = getelementptr inbounds nuw %struct.ssl_st, ptr %37, i32 0, i32 5
  %39 = load ptr, ptr %38, align 8, !tbaa !84
  %40 = call i32 @BIO_flush(ptr noundef %39)
  br label %41

41:                                               ; preds = %36, %27
  %42 = load ptr, ptr %3, align 8, !tbaa !6
  %43 = getelementptr inbounds nuw %struct.ssl_st, ptr %42, i32 0, i32 16
  %44 = load ptr, ptr %43, align 8, !tbaa !60
  %45 = icmp ne ptr %44, null
  br i1 %45, label %46, label %62

46:                                               ; preds = %41
  %47 = load ptr, ptr %3, align 8, !tbaa !6
  %48 = getelementptr inbounds nuw %struct.ssl_st, ptr %47, i32 0, i32 16
  %49 = load ptr, ptr %48, align 8, !tbaa !60
  %50 = load ptr, ptr %3, align 8, !tbaa !6
  %51 = getelementptr inbounds nuw %struct.ssl_st, ptr %50, i32 0, i32 0
  %52 = load i32, ptr %51, align 8, !tbaa !61
  %53 = load ptr, ptr %3, align 8, !tbaa !6
  %54 = getelementptr inbounds nuw %struct.ssl_st, ptr %53, i32 0, i32 14
  %55 = load ptr, ptr %54, align 8, !tbaa !16
  %56 = getelementptr inbounds nuw %struct.ssl3_state_st, ptr %55, i32 0, i32 20
  %57 = getelementptr inbounds [2 x i8], ptr %56, i64 0, i64 0
  %58 = load ptr, ptr %3, align 8, !tbaa !6
  %59 = load ptr, ptr %3, align 8, !tbaa !6
  %60 = getelementptr inbounds nuw %struct.ssl_st, ptr %59, i32 0, i32 17
  %61 = load ptr, ptr %60, align 8, !tbaa !62
  call void %49(i32 noundef 1, i32 noundef %52, i32 noundef 21, ptr noundef %57, i64 noundef 2, ptr noundef %58, ptr noundef %61)
  br label %62

62:                                               ; preds = %46, %41
  call void @llvm.lifetime.start.p0(i64 8, ptr %6) #4
  store ptr null, ptr %6, align 8, !tbaa !15
  %63 = load ptr, ptr %3, align 8, !tbaa !6
  %64 = getelementptr inbounds nuw %struct.ssl_st, ptr %63, i32 0, i32 27
  %65 = load ptr, ptr %64, align 8, !tbaa !64
  %66 = icmp ne ptr %65, null
  br i1 %66, label %67, label %71

67:                                               ; preds = %62
  %68 = load ptr, ptr %3, align 8, !tbaa !6
  %69 = getelementptr inbounds nuw %struct.ssl_st, ptr %68, i32 0, i32 27
  %70 = load ptr, ptr %69, align 8, !tbaa !64
  store ptr %70, ptr %6, align 8, !tbaa !15
  br label %85

71:                                               ; preds = %62
  %72 = load ptr, ptr %3, align 8, !tbaa !6
  %73 = getelementptr inbounds nuw %struct.ssl_st, ptr %72, i32 0, i32 31
  %74 = load ptr, ptr %73, align 8, !tbaa !65
  %75 = getelementptr inbounds nuw %struct.ssl_ctx_st, ptr %74, i32 0, i32 29
  %76 = load ptr, ptr %75, align 8, !tbaa !66
  %77 = icmp ne ptr %76, null
  br i1 %77, label %78, label %84

78:                                               ; preds = %71
  %79 = load ptr, ptr %3, align 8, !tbaa !6
  %80 = getelementptr inbounds nuw %struct.ssl_st, ptr %79, i32 0, i32 31
  %81 = load ptr, ptr %80, align 8, !tbaa !65
  %82 = getelementptr inbounds nuw %struct.ssl_ctx_st, ptr %81, i32 0, i32 29
  %83 = load ptr, ptr %82, align 8, !tbaa !66
  store ptr %83, ptr %6, align 8, !tbaa !15
  br label %84

84:                                               ; preds = %78, %71
  br label %85

85:                                               ; preds = %84, %67
  %86 = load ptr, ptr %6, align 8, !tbaa !15
  %87 = icmp ne ptr %86, null
  br i1 %87, label %88, label %108

88:                                               ; preds = %85
  call void @llvm.lifetime.start.p0(i64 4, ptr %7) #4
  %89 = load ptr, ptr %3, align 8, !tbaa !6
  %90 = getelementptr inbounds nuw %struct.ssl_st, ptr %89, i32 0, i32 14
  %91 = load ptr, ptr %90, align 8, !tbaa !16
  %92 = getelementptr inbounds nuw %struct.ssl3_state_st, ptr %91, i32 0, i32 20
  %93 = getelementptr inbounds [2 x i8], ptr %92, i64 0, i64 0
  %94 = load i8, ptr %93, align 8, !tbaa !63
  %95 = zext i8 %94 to i32
  %96 = shl i32 %95, 8
  %97 = load ptr, ptr %3, align 8, !tbaa !6
  %98 = getelementptr inbounds nuw %struct.ssl_st, ptr %97, i32 0, i32 14
  %99 = load ptr, ptr %98, align 8, !tbaa !16
  %100 = getelementptr inbounds nuw %struct.ssl3_state_st, ptr %99, i32 0, i32 20
  %101 = getelementptr inbounds [2 x i8], ptr %100, i64 0, i64 1
  %102 = load i8, ptr %101, align 1, !tbaa !63
  %103 = zext i8 %102 to i32
  %104 = or i32 %96, %103
  store i32 %104, ptr %7, align 4, !tbaa !13
  %105 = load ptr, ptr %6, align 8, !tbaa !15
  %106 = load ptr, ptr %3, align 8, !tbaa !6
  %107 = load i32, ptr %7, align 4, !tbaa !13
  call void %105(ptr noundef %106, i32 noundef 16392, i32 noundef %107)
  call void @llvm.lifetime.end.p0(i64 4, ptr %7) #4
  br label %108

108:                                              ; preds = %88, %85
  store i32 1, ptr %2, align 4
  store i32 1, ptr %5, align 4
  call void @llvm.lifetime.end.p0(i64 8, ptr %6) #4
  br label %109

109:                                              ; preds = %108, %21
  call void @llvm.lifetime.end.p0(i64 4, ptr %4) #4
  %110 = load i32, ptr %2, align 4
  ret i32 %110
}