; Function Attrs: nounwind uwtable
define hidden range(i32 -2147483648, 2) i32 @dtls1_dispatch_alert(ptr noundef %0) local_unnamed_addr #0 {
  %2 = getelementptr inbounds nuw i8, ptr %0, i64 80
  %3 = load ptr, ptr %2, align 8, !tbaa !6
  %4 = getelementptr inbounds nuw i8, ptr %3, i64 244
  store i32 0, ptr %4, align 4, !tbaa !72
  %5 = getelementptr inbounds nuw i8, ptr %3, i64 248
  %6 = tail call fastcc i32 @do_dtls1_write(ptr noundef %0, i32 noundef 21, ptr noundef nonnull %5, i32 noundef 2, i32 noundef 1)
  %7 = icmp slt i32 %6, 1
  %8 = load ptr, ptr %2, align 8, !tbaa !6
  br i1 %7, label %9, label %11

9:                                                ; preds = %1
  %10 = getelementptr inbounds nuw i8, ptr %8, i64 244
  store i32 1, ptr %10, align 4, !tbaa !72
  br label %45

11:                                               ; preds = %1
  %12 = getelementptr inbounds nuw i8, ptr %8, i64 248
  %13 = load i8, ptr %12, align 8, !tbaa !38
  %14 = icmp eq i8 %13, 2
  br i1 %14, label %15, label %19

15:                                               ; preds = %11
  %16 = getelementptr inbounds nuw i8, ptr %0, i64 24
  %17 = load ptr, ptr %16, align 8, !tbaa !77
  %18 = tail call i32 @BIO_flush(ptr noundef %17) #6
  br label %19

19:                                               ; preds = %15, %11
  %20 = getelementptr inbounds nuw i8, ptr %0, i64 96
  %21 = load ptr, ptr %20, align 8, !tbaa !55
  %.not = icmp eq ptr %21, null
  br i1 %.not, label %28, label %22

22:                                               ; preds = %19
  %23 = load i32, ptr %0, align 8, !tbaa !56
  %24 = load ptr, ptr %2, align 8, !tbaa !6
  %25 = getelementptr inbounds nuw i8, ptr %24, i64 248
  %26 = getelementptr inbounds nuw i8, ptr %0, i64 104
  %27 = load ptr, ptr %26, align 8, !tbaa !57
  tail call void %21(i32 noundef 1, i32 noundef %23, i32 noundef 21, ptr noundef nonnull %25, i64 noundef 2, ptr noundef nonnull %0, ptr noundef %27) #6
  br label %28

28:                                               ; preds = %22, %19
  %29 = getelementptr inbounds nuw i8, ptr %0, i64 200
  %30 = load ptr, ptr %29, align 8, !tbaa !58
  %.not29 = icmp eq ptr %30, null
  br i1 %.not29, label %31, label %.thread

31:                                               ; preds = %28
  %32 = getelementptr inbounds nuw i8, ptr %0, i64 232
  %33 = load ptr, ptr %32, align 8, !tbaa !59
  %34 = getelementptr inbounds nuw i8, ptr %33, i64 264
  %35 = load ptr, ptr %34, align 8, !tbaa !60
  %.not31 = icmp eq ptr %35, null
  br i1 %.not31, label %45, label %.thread

.thread:                                          ; preds = %28, %31
  %.02434 = phi ptr [ %35, %31 ], [ %30, %28 ]
  %36 = load ptr, ptr %2, align 8, !tbaa !6
  %37 = getelementptr inbounds nuw i8, ptr %36, i64 248
  %38 = load i8, ptr %37, align 8, !tbaa !38
  %39 = zext i8 %38 to i32
  %40 = shl nuw nsw i32 %39, 8
  %41 = getelementptr inbounds nuw i8, ptr %36, i64 249
  %42 = load i8, ptr %41, align 1, !tbaa !38
  %43 = zext i8 %42 to i32
  %44 = or disjoint i32 %40, %43
  tail call void %.02434(ptr noundef nonnull %0, i32 noundef 16392, i32 noundef %44) #6
  br label %45

45:                                               ; preds = %31, %.thread, %9
  %.0 = phi i32 [ %6, %9 ], [ 1, %.thread ], [ 1, %31 ]
  ret i32 %.0
}